(lp0
(I690
I534
tp1
a(I818
I510
tp2
a(I653
I532
tp3
a(I738
I542
tp4
a(I788
I548
tp5
a(I721
I533
tp6
a(I830
I555
tp7
a(I896
I552
tp8
a(I440
I520
tp9
a(I333
I538
tp10
a(I396
I526
tp11
a(I361
I531
tp12
a(I290
I545
tp13
a(I237
I549
tp14
a(I143
I556
tp15
a(I192
I552
tp16
a(I630
I466
tp17
a(I650
I473
tp18
a(I701
I481
tp19
a(I684
I478
tp20
a(I717
I486
tp21
a(I626
I528
tp22
a(I738
I491
tp23
a(I759
I495
tp24
a(I785
I501
tp25
a(I799
I507
tp26
a.