(lp0
(I586
I161
tp1
a(I88
I245
tp2
a(I331
I161
tp3
a(I96
I290
tp4
a(I890
I296
tp5
a(I806
I364
tp6
a(I166
I414
tp7
a(I355
I455
tp8
a(I621
I444
tp9
a(I754
I399
tp10
a(I116
I354
tp11
a(I950
I233
tp12
a(I238
I443
tp13
a(I477
I456
tp14
a.