(lp0
(I568
I1057
tp1
a(I2511
I1044
tp2
a(I5191
I864
tp3
a(I717
I1091
tp4
a(I5196
I947
tp5
a(I965
I1135
tp6
a(I52
I680
tp7
a(I52
I955
tp8
a(I262
I138
tp9
a(I364
I134
tp10
a(I376
I134
tp11
a(I53
I418
tp12
a(I57
I149
tp13
a(I2124
I1044
tp14
a(I380
I134
tp15
a(I360
I137
tp16
a(I462
I134
tp17
a(I564
I136
tp18
a(I662
I136
tp19
a(I767
I136
tp20
a(I874
I138
tp21
a(I3176
I826
tp22
a(I961
I136
tp23
a(I1046
I135
tp24
a(I644
I841
tp25
a(I1076
I135
tp26
a(I1207
I135
tp27
a(I587
I1069
tp28
a(I1323
I135
tp29
a(I1111
I135
tp30
a(I1561
I136
tp31
a(I1660
I136
tp32
a(I5190
I837
tp33
a(I1917
I136
tp34
a(I1796
I136
tp35
a(I1448
I136
tp36
a(I1738
I136
tp37
a(I2022
I136
tp38
a(I433
I1019
tp39
a(I2124
I136
tp40
a(I2292
I136
tp41
a(I5189
I929
tp42
a(I2202
I136
tp43
a(I5189
I807
tp44
a(I2394
I136
tp45
a(I2468
I136
tp46
a(I2573
I136
tp47
a(I2702
I136
tp48
a(I2772
I136
tp49
a(I2890
I136
tp50
a(I2996
I136
tp51
a(I3124
I136
tp52
a(I3229
I136
tp53
a(I5533
I136
tp54
a(I4455
I948
tp55
a(I3355
I136
tp56
a(I3454
I136
tp57
a(I3580
I136
tp58
a(I3688
I136
tp59
a(I3805
I136
tp60
a(I3904
I136
tp61
a(I4021
I136
tp62
a(I4147
I136
tp63
a(I4273
I136
tp64
a(I4390
I136
tp65
a(I4507
I136
tp66
a(I983
I1020
tp67
a(I4615
I136
tp68
a(I4741
I136
tp69
a(I5178
I1092
tp70
a(I4858
I136
tp71
a(I4966
I136
tp72
a(I5092
I136
tp73
a(I5200
I136
tp74
a(I867
I940
tp75
a(I5317
I136
tp76
a(I5425
I136
tp77
a(I5183
I1063
tp78
a(I5842
I136
tp79
a(I5686
I136
tp80
a(I5186
I1096
tp81
a(I5868
I136
tp82
a(I6050
I136
tp83
a(I5669
I136
tp84
a(I5820
I136
tp85
a(I5616
I136
tp86
a(I5715
I136
tp87
a(I3144
I1044
tp88
a(I5868
I136
tp89
a(I2970
I1044
tp90
a(I4658
I1094
tp91
a(I2781
I1044
tp92
a(I6129
I136
tp93
a(I5990
I136
tp94
a(I6112
I136
tp95
a(I2322
I1044
tp96
a(I6193
I136
tp97
a(I2178
I1044
tp98
a(I6256
I136
tp99
a(I5187
I814
tp100
a(I6328
I136
tp101
a(I1971
I1044
tp102
a(I6391
I136
tp103
a(I1935
I1044
tp104
a(I6481
I136
tp105
a(I369
I1144
tp106
a(I6571
I136
tp107
a(I326
I1011
tp108
a(I1382
I626
tp109
a(I6652
I136
tp110
a(I1007
I762
tp111
a(I6733
I136
tp112
a(I1595
I903
tp113
a(I6832
I136
tp114
a(I435
I1033
tp115
a(I6922
I136
tp116
a(I7012
I136
tp117
a(I7102
I136
tp118
a(I7192
I136
tp119
a(I474
I752
tp120
a(I7291
I136
tp121
a(I1088
I969
tp122
a(I7390
I136
tp123
a(I460
I1050
tp124
a(I7498
I136
tp125
a(I5192
I889
tp126
a(I7597
I136
tp127
a(I7687
I136
tp128
a(I7786
I136
tp129
a(I308
I757
tp130
a(I7853
I136
tp131
a(I5188
I1192
tp132
a(I5189
I776
tp133
a(I4143
I745
tp134
a(I862
I916
tp135
a(I4106
I970
tp136
a(I825
I1114
tp137
a(I5189
I1161
tp138
a(I4695
I729
tp139
a(I5185
I1094
tp140
a(I5189
I1172
tp141
a(I3512
I951
tp142
a(I5188
I1140
tp143
a(I5185
I1032
tp144
a(I5182
I787
tp145
a(I5186
I1055
tp146
a(I5187
I1122
tp147
a(I5185
I1085
tp148
a(I5185
I1001
tp149
a(I5185
I994
tp150
a(I5185
I1040
tp151
a(I2574
I1044
tp152
a(I5194
I757
tp153
a(I5186
I973
tp154
a(I5192
I902
tp155
a(I5195
I1010
tp156
a.