(lp0
(I579
I533
tp1
a(I237
I470
tp2
a(I42
I491
tp3
a(I117
I454
tp4
a(I462
I431
tp5
a(I660
I485
tp6
a(I732
I426
tp7
a(I895
I296
tp8
a(I866
I196
tp9
a(I581
I107
tp10
a(I960
I237
tp11
a(I718
I152
tp12
a(I319
I37
tp13
a(I230
I94
tp14
a(I459
I68
tp15
a(I55
I205
tp16
a(I106
I267
tp17
a(I140
I144
tp18
a(I216
I290
tp19
a(I356
I367
tp20
a(I270
I336
tp21
a(I473
I290
tp22
a(I426
I330
tp23
a(I535
I246
tp24
a(I607
I207
tp25
a(I574
I359
tp26
a(I697
I261
tp27
a(I516
I391
tp28
a(I355
I458
tp29
a(I629
I325
tp30
a(I814
I359
tp31
a.